target datalayout = "e-m:e-p270:32:32-p271:32:32-p272:64:64-i64:64-i128:128-f80:128-n8:16:32:64-S128"
target triple = "x86_64-pc-linux-gnu"

%struct.evthread_lock_callbacks = type { i32, i32, ptr, ptr, ptr, ptr }

@arc4rand_lock = internal global ptr null, align 8
@evthread_lock_fns_ = external global %struct.evthread_lock_callbacks, align 8
@arc4random_urandom_filename = internal global ptr null, align 8

; Function Attrs: nounwind uwtable
define i32 @evutil_secure_rng_set_urandom_device_file(ptr noundef %0) #0 {
  %2 = alloca ptr, align 8
  store ptr %0, ptr %2, align 8
  br label %3

3:                                                ; preds = %1
  %4 = load ptr, ptr @arc4rand_lock, align 8
  %5 = icmp ne ptr %4, null
  br i1 %5, label %6, label %10

6:                                                ; preds = %3
  %7 = load ptr, ptr getelementptr inbounds nuw (%struct.evthread_lock_callbacks, ptr @evthread_lock_fns_, i32 0, i32 4), align 8
  %8 = load ptr, ptr @arc4rand_lock, align 8
  %9 = call i32 %7(i32 noundef 0, ptr noundef %8)
  br label %10

10:                                               ; preds = %6, %3
  br label %11

11:                                               ; preds = %10
  %12 = load ptr, ptr %2, align 8
  store ptr %12, ptr @arc4random_urandom_filename, align 8
  br label %13

13:                                               ; preds = %11
  %14 = load ptr, ptr @arc4rand_lock, align 8
  %15 = icmp ne ptr %14, null
  br i1 %15, label %16, label %20

16:                                               ; preds = %13
  %17 = load ptr, ptr getelementptr inbounds nuw (%struct.evthread_lock_callbacks, ptr @evthread_lock_fns_, i32 0, i32 5), align 8
  %18 = load ptr, ptr @arc4rand_lock, align 8
  %19 = call i32 %17(i32 noundef 0, ptr noundef %18)
  br label %20

20:                                               ; preds = %16, %13
  br label %21

21:                                               ; preds = %20
  ret i32 0
}