; Function Attrs: nounwind uwtable
define noundef i32 @evutil_secure_rng_set_urandom_device_file(ptr noundef %0) local_unnamed_addr #0 {
  %2 = load ptr, ptr @arc4rand_lock, align 8
  %.not = icmp eq ptr %2, null
  br i1 %.not, label %.thread, label %3

.thread:                                          ; preds = %1
  store ptr %0, ptr @arc4random_urandom_filename, align 8
  br label %9

3:                                                ; preds = %1
  %4 = load ptr, ptr getelementptr inbounds nuw (i8, ptr @evthread_lock_fns_, i64 24), align 8
  %5 = tail call i32 %4(i32 noundef 0, ptr noundef nonnull %2) #7
  %.pr = load ptr, ptr @arc4rand_lock, align 8
  store ptr %0, ptr @arc4random_urandom_filename, align 8
  %.not2 = icmp eq ptr %.pr, null
  br i1 %.not2, label %9, label %6

6:                                                ; preds = %3
  %7 = load ptr, ptr getelementptr inbounds nuw (i8, ptr @evthread_lock_fns_, i64 32), align 8
  %8 = tail call i32 %7(i32 noundef 0, ptr noundef nonnull %.pr) #7
  br label %9

9:                                                ; preds = %.thread, %3, %6
  ret i32 0
}